target datalayout = "e-m:e-p270:32:32-p271:32:32-p272:64:64-i64:64-i128:128-f80:128-n8:16:32:64-S128"
target triple = "x86_64-pc-linux-gnu"

%struct._GList = type { ptr, ptr, ptr }

; Function Attrs: nounwind null_pointer_is_valid sspstrong uwtable
define hidden void @prefs_to_capture_opts() #0 {
  ret void
}

; Function Attrs: null_pointer_is_valid sspstrong uwtable
define hidden zeroext i1 @prefs_store_ext_multiple(ptr noundef %0, ptr noundef %1) #1 {
  %3 = alloca i1, align 1
  %4 = alloca ptr, align 8
  %5 = alloca ptr, align 8
  %6 = alloca i8, align 1
  %7 = alloca ptr, align 8
  %8 = alloca i32, align 4
  %9 = alloca ptr, align 8
  %10 = alloca ptr, align 8
  %11 = alloca ptr, align 8
  store ptr %0, ptr %4, align 8
  store ptr %1, ptr %5, align 8
  call void @llvm.lifetime.start.p0(i64 1, ptr %6) #9
  store i8 0, ptr %6, align 1
  call void @llvm.lifetime.start.p0(i64 8, ptr %7) #9
  store ptr null, ptr %7, align 8
  %12 = load ptr, ptr %4, align 8
  %13 = call zeroext i1 @prefs_is_registered_protocol(ptr noundef %12)
  br i1 %13, label %17, label %14

14:                                               ; preds = %2
  %15 = load i8, ptr %6, align 1, !range !6, !noundef !7
  %16 = trunc i8 %15 to i1
  store i1 %16, ptr %3, align 1
  store i32 1, ptr %8, align 4
  br label %70

17:                                               ; preds = %2
  %18 = load ptr, ptr %5, align 8
  %19 = call ptr @g_hash_table_get_keys(ptr noundef %18)
  store ptr %19, ptr %7, align 8
  %20 = load ptr, ptr %7, align 8
  %21 = icmp ne ptr %20, null
  br i1 %21, label %25, label %22

22:                                               ; preds = %17
  %23 = load i8, ptr %6, align 1, !range !6, !noundef !7
  %24 = trunc i8 %23 to i1
  store i1 %24, ptr %3, align 1
  store i32 1, ptr %8, align 4
  br label %70

25:                                               ; preds = %17
  call void @llvm.lifetime.start.p0(i64 8, ptr %9) #9
  %26 = load ptr, ptr %7, align 8
  store ptr %26, ptr %9, align 8
  br label %27

27:                                               ; preds = %62, %25
  %28 = load ptr, ptr %9, align 8
  %29 = icmp ne ptr %28, null
  br i1 %29, label %31, label %30

30:                                               ; preds = %27
  store i32 2, ptr %8, align 4
  call void @llvm.lifetime.end.p0(i64 8, ptr %9) #9
  br label %64

31:                                               ; preds = %27
  call void @llvm.lifetime.start.p0(i64 8, ptr %10) #9
  %32 = load ptr, ptr %9, align 8
  %33 = getelementptr inbounds nuw %struct._GList, ptr %32, i32 0, i32 0
  %34 = load ptr, ptr %33, align 8
  store ptr %34, ptr %10, align 8
  call void @llvm.lifetime.start.p0(i64 8, ptr %11) #9
  %35 = load ptr, ptr %5, align 8
  %36 = load ptr, ptr %9, align 8
  %37 = getelementptr inbounds nuw %struct._GList, ptr %36, i32 0, i32 0
  %38 = load ptr, ptr %37, align 8
  %39 = call ptr @g_hash_table_lookup(ptr noundef %35, ptr noundef %38)
  store ptr %39, ptr %11, align 8
  %40 = load ptr, ptr %10, align 8
  %41 = icmp ne ptr %40, null
  br i1 %41, label %42, label %53

42:                                               ; preds = %31
  %43 = load ptr, ptr %11, align 8
  %44 = icmp ne ptr %43, null
  br i1 %44, label %45, label %53

45:                                               ; preds = %42
  %46 = load ptr, ptr %4, align 8
  %47 = load ptr, ptr %10, align 8
  %48 = load ptr, ptr %11, align 8
  %49 = call i32 @prefs_store_ext_helper(ptr noundef %46, ptr noundef %47, ptr noundef %48)
  %50 = icmp ne i32 %49, 0
  br i1 %50, label %51, label %52

51:                                               ; preds = %45
  store i8 1, ptr %6, align 1
  br label %52

52:                                               ; preds = %51, %45
  br label %53

53:                                               ; preds = %52, %42, %31
  call void @llvm.lifetime.end.p0(i64 8, ptr %11) #9
  call void @llvm.lifetime.end.p0(i64 8, ptr %10) #9
  br label %54

54:                                               ; preds = %53
  %55 = load ptr, ptr %9, align 8
  %56 = icmp ne ptr %55, null
  br i1 %56, label %57, label %61

57:                                               ; preds = %54
  %58 = load ptr, ptr %9, align 8
  %59 = getelementptr inbounds nuw %struct._GList, ptr %58, i32 0, i32 1
  %60 = load ptr, ptr %59, align 8
  br label %62

61:                                               ; preds = %54
  br label %62

62:                                               ; preds = %61, %57
  %63 = phi ptr [ %60, %57 ], [ null, %61 ]
  store ptr %63, ptr %9, align 8
  br label %27, !llvm.loop !8

64:                                               ; preds = %30
  %65 = load ptr, ptr %7, align 8
  call void @g_list_free(ptr noundef %65)
  %66 = load i8, ptr %6, align 1, !range !6, !noundef !7
  %67 = trunc i8 %66 to i1
  br i1 %67, label %68, label %69

68:                                               ; preds = %64
  call void @prefs_main_write()
  call void @prefs_apply_all()
  call void @prefs_to_capture_opts()
  br label %69

69:                                               ; preds = %68, %64
  store i1 true, ptr %3, align 1
  store i32 1, ptr %8, align 4
  br label %70

70:                                               ; preds = %69, %22, %14
  call void @llvm.lifetime.end.p0(i64 8, ptr %7) #9
  call void @llvm.lifetime.end.p0(i64 1, ptr %6) #9
  %71 = load i1, ptr %3, align 1
  ret i1 %71
}