; Function Attrs: null_pointer_is_valid sspstrong uwtable
define hidden noundef zeroext i1 @prefs_store_ext_multiple(ptr noundef %0, ptr noundef %1) local_unnamed_addr #1 {
  %3 = tail call zeroext i1 @prefs_is_registered_protocol(ptr noundef %0)
  br i1 %3, label %4, label %17

4:                                                ; preds = %2
  %5 = tail call ptr @g_hash_table_get_keys(ptr noundef %1)
  %.not = icmp eq ptr %5, null
  br i1 %.not, label %17, label %.preheader

6:                                                ; preds = %13
  tail call void @g_list_free(ptr noundef nonnull %5)
  br i1 %.1, label %16, label %17

.preheader:                                       ; preds = %4, %13
  %.02028 = phi i1 [ %.1, %13 ], [ false, %4 ]
  %.02127 = phi ptr [ %15, %13 ], [ %5, %4 ]
  %7 = load ptr, ptr %.02127, align 8
  %8 = tail call ptr @g_hash_table_lookup(ptr noundef %1, ptr noundef %7)
  %9 = icmp ne ptr %7, null
  %10 = icmp ne ptr %8, null
  %or.cond = select i1 %9, i1 %10, i1 false
  br i1 %or.cond, label %11, label %13

11:                                               ; preds = %.preheader
  %12 = tail call fastcc i32 @prefs_store_ext_helper(ptr noundef %0, ptr noundef nonnull %7, ptr noundef nonnull %8)
  %.not26 = icmp ne i32 %12, 0
  %spec.select = select i1 %.not26, i1 true, i1 %.02028
  br label %13

13:                                               ; preds = %11, %.preheader
  %.1 = phi i1 [ %.02028, %.preheader ], [ %spec.select, %11 ]
  %14 = getelementptr inbounds nuw i8, ptr %.02127, i64 8
  %15 = load ptr, ptr %14, align 8
  %.not25 = icmp eq ptr %15, null
  br i1 %.not25, label %6, label %.preheader, !llvm.loop !6

16:                                               ; preds = %6
  tail call void @prefs_main_write()
  tail call void @prefs_apply_all()
  br label %17

17:                                               ; preds = %6, %16, %4, %2
  %.0 = phi i1 [ false, %2 ], [ false, %4 ], [ true, %16 ], [ true, %6 ]
  ret i1 %.0
}